(dp1
S'failed'
p2
(lp3
S'10'
p4
asS'source_names'
p5
(lp6
S'tests/test_server.py'
p7
asS'ids'
p8
(dp9
I1
(S'/run/media/matibarriento/Data/Documents/Proyectos/Linkode/kilink/tests/test_server.py'
S'tests.test_server'
p10
S'ServingTestCase.test_create'
tp11
sI2
(S'/run/media/matibarriento/Data/Documents/Proyectos/Linkode/kilink/tests/test_server.py'
g10
S'ServingTestCase.test_create_auto_text'
tp12
sI3
(S'/run/media/matibarriento/Data/Documents/Proyectos/Linkode/kilink/tests/test_server.py'
g10
S'ServingTestCase.test_invalid_base'
tp13
sI4
(S'/run/media/matibarriento/Data/Documents/Proyectos/Linkode/kilink/tests/test_server.py'
g10
S'ServingTestCase.test_invalid_klnk'
tp14
sI5
(S'/run/media/matibarriento/Data/Documents/Proyectos/Linkode/kilink/tests/test_server.py'
g10
S'ServingTestCase.test_root_page'
tp15
sI6
(S'/run/media/matibarriento/Data/Documents/Proyectos/Linkode/kilink/tests/test_server.py'
g10
S'ServingTestCase.test_serving_base'
tp16
sI7
(S'/run/media/matibarriento/Data/Documents/Proyectos/Linkode/kilink/tests/test_server.py'
g10
S'ServingTestCase.test_serving_revno'
tp17
sI8
(S'/run/media/matibarriento/Data/Documents/Proyectos/Linkode/kilink/tests/test_server.py'
g10
S'ServingTestCase.test_update_base'
tp18
sI9
(S'/run/media/matibarriento/Data/Documents/Proyectos/Linkode/kilink/tests/test_server.py'
g10
S'ServingTestCase.test_update_revno'
tp19
sI10
(S'/run/media/matibarriento/Data/Documents/Proyectos/Linkode/kilink/tests/test_server.py'
g10
S'UnmockedServingTestCase.test_serving_base'
tp20
ss.